; Function Attrs: mustprogress nofree nounwind uwtable
define noundef i32 @_ZN5folly8external8farmhash10farmhashnt14Hash32WithSeedEPKcmj(ptr noundef readnone captures(none) %0, i64 noundef %1, i32 noundef %2) local_unnamed_addr #1 {
  %4 = load i8, ptr @_ZN5folly8external8farmhash4test25returnZeroIfMisconfiguredE, align 1, !tbaa !13, !range !15, !noundef !16
  %5 = trunc nuw i8 %4 to i1
  br i1 %5, label %6, label %7

6:                                                ; preds = %3
  ret i32 0

7:                                                ; preds = %3
  tail call void @_ZSt9terminatev() #4
  unreachable
}